; Function Attrs: nofree norecurse nosync nounwind memory(argmem: readwrite) uwtable
define internal void @rgb64BEToUV_c(ptr noundef writeonly captures(none) %0, ptr noundef writeonly captures(none) %1, ptr readnone captures(none) %2, ptr noundef readonly captures(none) %3, ptr readnone captures(none) %4, i32 noundef %5, ptr noundef readonly captures(none) %6, ptr readnone captures(none) %7) #1 {
  %9 = getelementptr inbounds nuw i8, ptr %6, i64 12
  %10 = load i32, ptr %9, align 4, !tbaa !42
  %11 = getelementptr inbounds nuw i8, ptr %6, i64 16
  %12 = load i32, ptr %11, align 4, !tbaa !42
  %13 = getelementptr inbounds nuw i8, ptr %6, i64 20
  %14 = load i32, ptr %13, align 4, !tbaa !42
  %15 = getelementptr inbounds nuw i8, ptr %6, i64 24
  %16 = load i32, ptr %15, align 4, !tbaa !42
  %17 = getelementptr inbounds nuw i8, ptr %6, i64 28
  %18 = load i32, ptr %17, align 4, !tbaa !42
  %19 = getelementptr inbounds nuw i8, ptr %6, i64 32
  %20 = load i32, ptr %19, align 4, !tbaa !42
  %21 = icmp sgt i32 %5, 0
  br i1 %21, label %.lr.ph.preheader, label %rgb64ToUV_c_template.exit

.lr.ph.preheader:                                 ; preds = %8
  %wide.trip.count = zext nneg i32 %5 to i64
  br label %.lr.ph

.lr.ph:                                           ; preds = %.lr.ph.preheader, %.lr.ph
  %indvars.iv = phi i64 [ 0, %.lr.ph.preheader ], [ %indvars.iv.next, %.lr.ph ]
  %.idx = shl nsw i64 %indvars.iv, 3
  %22 = getelementptr inbounds nuw i8, ptr %3, i64 %.idx
  %23 = load i16, ptr %22, align 1, !tbaa !34
  %24 = tail call i16 @llvm.bswap.i16(i16 %23)
  %25 = zext i16 %24 to i32
  %26 = getelementptr inbounds nuw i8, ptr %22, i64 2
  %27 = load i16, ptr %26, align 1, !tbaa !34
  %28 = tail call i16 @llvm.bswap.i16(i16 %27)
  %29 = zext i16 %28 to i32
  %30 = getelementptr inbounds nuw i8, ptr %22, i64 4
  %31 = load i16, ptr %30, align 1, !tbaa !34
  %32 = tail call i16 @llvm.bswap.i16(i16 %31)
  %33 = zext i16 %32 to i32
  %34 = mul i32 %10, %25
  %35 = mul i32 %12, %29
  %36 = mul i32 %14, %33
  %37 = add i32 %34, 1073758208
  %38 = add i32 %37, %35
  %39 = add i32 %38, %36
  %40 = lshr i32 %39, 15
  %41 = trunc i32 %40 to i16
  %42 = getelementptr inbounds nuw i16, ptr %0, i64 %indvars.iv
  store i16 %41, ptr %42, align 2, !tbaa !43
  %43 = mul i32 %16, %25
  %44 = mul i32 %18, %29
  %45 = mul i32 %20, %33
  %46 = add i32 %43, 1073758208
  %47 = add i32 %46, %44
  %48 = add i32 %47, %45
  %49 = lshr i32 %48, 15
  %50 = trunc i32 %49 to i16
  %51 = getelementptr inbounds nuw i16, ptr %1, i64 %indvars.iv
  store i16 %50, ptr %51, align 2, !tbaa !43
  %indvars.iv.next = add nuw nsw i64 %indvars.iv, 1
  %exitcond.not = icmp eq i64 %indvars.iv.next, %wide.trip.count
  br i1 %exitcond.not, label %rgb64ToUV_c_template.exit, label %.lr.ph, !llvm.loop !84

rgb64ToUV_c_template.exit:                        ; preds = %.lr.ph, %8
  ret void
}